target datalayout = "e-m:e-p270:32:32-p271:32:32-p272:64:64-i64:64-i128:128-f80:128-n8:16:32:64-S128"
target triple = "x86_64-pc-linux-gnu"

%struct.IDAMemRec = type { ptr, double, ptr, ptr, i32, double, double, ptr, i32, i32, ptr, ptr, i32, i32, i32, ptr, ptr, i32, i32, double, double, ptr, i32, i32, i32, i32, ptr, ptr, i32, ptr, ptr, ptr, i32, double, i32, i32, double, ptr, ptr, ptr, i32, ptr, ptr, i32, i32, i32, double, ptr, ptr, ptr, [6 x ptr], [6 x double], [6 x double], [6 x double], [6 x double], [6 x double], ptr, ptr, ptr, ptr, ptr, ptr, ptr, ptr, ptr, ptr, ptr, ptr, ptr, ptr, ptr, ptr, ptr, [6 x ptr], ptr, ptr, ptr, ptr, [6 x ptr], ptr, ptr, ptr, ptr, ptr, ptr, ptr, ptr, ptr, ptr, ptr, ptr, ptr, ptr, ptr, ptr, [6 x ptr], ptr, ptr, ptr, ptr, ptr, double, ptr, ptr, i32, i32, i32, i32, i32, i32, i32, i32, double, double, double, i32, double, i32, i32, i32, i32, i32, double, double, double, double, double, double, double, double, double, double, double, double, double, double, double, double, double, i32, i32, i32, i32, i64, double, double, double, double, double, double, double, double, double, i64, i64, i64, i64, i64, i64, i64, i64, i64, i64, i64, i64, i64, i64, i64, i64, i64, i64, i64, i64, i64, i64, i64, i64, i64, i64, double, i32, i32, i32, i32, i32, i32, i32, i32, i32, i32, i32, i32, i32, ptr, i32, ptr, i32, ptr, i32, ptr, ptr, ptr, ptr, ptr, ptr, i32, i32, ptr, ptr, ptr, ptr, ptr, ptr, ptr, double, i32, i32, ptr, i32, ptr, ptr, double, double, double, ptr, ptr, ptr, double, double, i32, i32, i64, ptr, i32, ptr, [5 x double], ptr, ptr, i32, ptr, i32 }
%struct.IDAadjMemRec = type { double, double, i32, i32, double, i32, double, ptr, i32, ptr, i32, ptr, ptr, i32, i64, i64, ptr, i64, i32, ptr, ptr, ptr, ptr, i32, i32, i32, i32, i32, [6 x ptr], [6 x ptr], [6 x double], ptr, ptr, ptr, ptr }

@.str = private unnamed_addr constant [111 x i8] c"generated/home/dtcxzyw/WorkSpace/Projects/compilers/llvm-opt-benchmark/bench/sundials/sundials/src/idas/idaa.c\00", align 1
@.str.1 = private unnamed_addr constant [24 x i8] c"ida_mem = NULL illegal.\00", align 1
@__func__.IDAAdjReInit = private unnamed_addr constant [13 x i8] c"IDAAdjReInit\00", align 1
@.str.5 = private unnamed_addr constant [51 x i8] c"Illegal attempt to call before calling IDAadjInit.\00", align 1

; Function Attrs: nounwind uwtable
define i32 @IDAAdjReInit(ptr noundef %0) #0 {
  %2 = alloca i32, align 4
  %3 = alloca ptr, align 8
  %4 = alloca ptr, align 8
  %5 = alloca ptr, align 8
  %6 = alloca i32, align 4
  store ptr %0, ptr %3, align 8, !tbaa !3
  call void @llvm.lifetime.start.p0(i64 8, ptr %4) #6
  call void @llvm.lifetime.start.p0(i64 8, ptr %5) #6
  %7 = load ptr, ptr %3, align 8, !tbaa !3
  %8 = icmp eq ptr %7, null
  br i1 %8, label %9, label %10

9:                                                ; preds = %1
  call void (ptr, i32, i32, ptr, ptr, ptr, ...) @IDAProcessError(ptr noundef null, i32 noundef -20, i32 noundef 240, ptr noundef @__func__.IDAAdjReInit, ptr noundef @.str, ptr noundef @.str.1)
  store i32 -20, ptr %2, align 4
  store i32 1, ptr %6, align 4
  br label %43

10:                                               ; preds = %1
  %11 = load ptr, ptr %3, align 8, !tbaa !3
  store ptr %11, ptr %5, align 8, !tbaa !11
  %12 = load ptr, ptr %5, align 8, !tbaa !11
  %13 = getelementptr inbounds nuw %struct.IDAMemRec, ptr %12, i32 0, i32 240
  %14 = load i32, ptr %13, align 8, !tbaa !50
  %15 = icmp eq i32 %14, 0
  br i1 %15, label %16, label %18

16:                                               ; preds = %10
  %17 = load ptr, ptr %5, align 8, !tbaa !11
  call void (ptr, i32, i32, ptr, ptr, ptr, ...) @IDAProcessError(ptr noundef %17, i32 noundef -101, i32 noundef 251, ptr noundef @__func__.IDAAdjReInit, ptr noundef @.str, ptr noundef @.str.5)
  store i32 -101, ptr %2, align 4
  store i32 1, ptr %6, align 4
  br label %43

18:                                               ; preds = %10
  %19 = load ptr, ptr %5, align 8, !tbaa !11
  %20 = getelementptr inbounds nuw %struct.IDAMemRec, ptr %19, i32 0, i32 239
  %21 = load ptr, ptr %20, align 8, !tbaa !15
  store ptr %21, ptr %4, align 8, !tbaa !13
  br label %22

22:                                               ; preds = %27, %18
  %23 = load ptr, ptr %4, align 8, !tbaa !13
  %24 = getelementptr inbounds nuw %struct.IDAadjMemRec, ptr %23, i32 0, i32 11
  %25 = load ptr, ptr %24, align 8, !tbaa !24
  %26 = icmp ne ptr %25, null
  br i1 %26, label %27, label %30

27:                                               ; preds = %22
  %28 = load ptr, ptr %4, align 8, !tbaa !13
  %29 = getelementptr inbounds nuw %struct.IDAadjMemRec, ptr %28, i32 0, i32 11
  call void @IDAAckpntDelete(ptr noundef %29)
  br label %22

30:                                               ; preds = %22
  %31 = load ptr, ptr %4, align 8, !tbaa !13
  %32 = getelementptr inbounds nuw %struct.IDAadjMemRec, ptr %31, i32 0, i32 11
  store ptr null, ptr %32, align 8, !tbaa !24
  %33 = load ptr, ptr %4, align 8, !tbaa !13
  %34 = getelementptr inbounds nuw %struct.IDAadjMemRec, ptr %33, i32 0, i32 13
  store i32 0, ptr %34, align 8, !tbaa !29
  %35 = load ptr, ptr %4, align 8, !tbaa !13
  %36 = getelementptr inbounds nuw %struct.IDAadjMemRec, ptr %35, i32 0, i32 12
  store ptr null, ptr %36, align 8, !tbaa !30
  %37 = load ptr, ptr %4, align 8, !tbaa !13
  %38 = getelementptr inbounds nuw %struct.IDAadjMemRec, ptr %37, i32 0, i32 2
  store i32 1, ptr %38, align 8, !tbaa !45
  %39 = load ptr, ptr %4, align 8, !tbaa !13
  %40 = getelementptr inbounds nuw %struct.IDAadjMemRec, ptr %39, i32 0, i32 3
  store i32 0, ptr %40, align 4, !tbaa !46
  %41 = load ptr, ptr %4, align 8, !tbaa !13
  %42 = getelementptr inbounds nuw %struct.IDAadjMemRec, ptr %41, i32 0, i32 10
  store i32 1, ptr %42, align 8, !tbaa !47
  store i32 0, ptr %2, align 4
  store i32 1, ptr %6, align 4
  br label %43

43:                                               ; preds = %30, %16, %9
  call void @llvm.lifetime.end.p0(i64 8, ptr %5) #6
  call void @llvm.lifetime.end.p0(i64 8, ptr %4) #6
  %44 = load i32, ptr %2, align 4
  ret i32 %44
}